#include <math.h>
#include <stdio.h>
#include <stdlib.h>
#include <string.h>

void main()
{
	int n;
    char s[200],*p,*k;
	gets(s);
	n=strlen(s);
	for(p=s+n-1;p>s;p--){
		if(*p==' '){
			for(k=p+1;(*k!=' ')&&(*k!='\0');k++)
			{printf("%c",*k);}
			printf(" ");
		}
	}
	for(;(*p!=' ')&&(*p!='\0');p++)
		printf("%c",*p);
}
	